target datalayout = "e-m:e-p270:32:32-p271:32:32-p272:64:64-i64:64-i128:128-f80:128-n8:16:32:64-S128"
target triple = "x86_64-pc-linux-gnu"

%struct.ForEachState = type { ptr, i32 }
%struct.RelOptInfo = type { i32, i32, ptr, double, i8, i8, i8, ptr, ptr, ptr, ptr, ptr, ptr, ptr, ptr, ptr, ptr, i32, i32, i32, i16, i16, ptr, ptr, ptr, ptr, ptr, ptr, ptr, ptr, i32, double, double, ptr, ptr, ptr, i32, i32, i32, i32, i8, ptr, ptr, ptr, ptr, ptr, %struct.QualCost, i32, ptr, i8, i8, ptr, ptr, ptr, ptr, i32, ptr, i8, ptr, ptr, ptr, ptr, ptr, ptr }
%struct.QualCost = type { double, double }
%struct.List = type { i32, i32, i32, ptr, [0 x %union.ListCell] }
%union.ListCell = type { ptr }
%struct.Path = type { i32, i32, ptr, ptr, ptr, i8, i8, i32, double, i32, double, double, ptr }

; Function Attrs: nounwind uwtable
define internal void @consider_parallel_mergejoin(ptr noundef %0, ptr noundef %1, ptr noundef %2, ptr noundef %3, i32 noundef %4, ptr noundef %5, ptr noundef %6) #0 {
  %8 = alloca ptr, align 8
  %9 = alloca ptr, align 8
  %10 = alloca ptr, align 8
  %11 = alloca ptr, align 8
  %12 = alloca i32, align 4
  %13 = alloca ptr, align 8
  %14 = alloca ptr, align 8
  %15 = alloca ptr, align 8
  %16 = alloca %struct.ForEachState, align 8
  %17 = alloca ptr, align 8
  %18 = alloca ptr, align 8
  store ptr %0, ptr %8, align 8
  store ptr %1, ptr %9, align 8
  store ptr %2, ptr %10, align 8
  store ptr %3, ptr %11, align 8
  store i32 %4, ptr %12, align 4
  store ptr %5, ptr %13, align 8
  store ptr %6, ptr %14, align 8
  call void @llvm.lifetime.start.p0(i64 8, ptr %15) #6
  call void @llvm.lifetime.start.p0(i64 16, ptr %16) #6
  %19 = getelementptr inbounds nuw %struct.ForEachState, ptr %16, i32 0, i32 0
  %20 = load ptr, ptr %10, align 8
  %21 = getelementptr inbounds nuw %struct.RelOptInfo, ptr %20, i32 0, i32 10
  %22 = load ptr, ptr %21, align 8
  store ptr %22, ptr %19, align 8
  %23 = getelementptr inbounds nuw %struct.ForEachState, ptr %16, i32 0, i32 1
  store i32 0, ptr %23, align 8
  %24 = getelementptr i8, ptr %16, i64 12
  call void @llvm.memset.p0.i64(ptr align 4 %24, i8 0, i64 4, i1 false)
  br label %25

25:                                               ; preds = %69, %7
  %26 = getelementptr inbounds nuw %struct.ForEachState, ptr %16, i32 0, i32 0
  %27 = load ptr, ptr %26, align 8
  %28 = icmp ne ptr %27, null
  br i1 %28, label %29, label %46

29:                                               ; preds = %25
  %30 = getelementptr inbounds nuw %struct.ForEachState, ptr %16, i32 0, i32 1
  %31 = load i32, ptr %30, align 8
  %32 = getelementptr inbounds nuw %struct.ForEachState, ptr %16, i32 0, i32 0
  %33 = load ptr, ptr %32, align 8
  %34 = getelementptr inbounds nuw %struct.List, ptr %33, i32 0, i32 1
  %35 = load i32, ptr %34, align 4
  %36 = icmp slt i32 %31, %35
  br i1 %36, label %37, label %46

37:                                               ; preds = %29
  %38 = getelementptr inbounds nuw %struct.ForEachState, ptr %16, i32 0, i32 0
  %39 = load ptr, ptr %38, align 8
  %40 = getelementptr inbounds nuw %struct.List, ptr %39, i32 0, i32 3
  %41 = load ptr, ptr %40, align 8
  %42 = getelementptr inbounds nuw %struct.ForEachState, ptr %16, i32 0, i32 1
  %43 = load i32, ptr %42, align 8
  %44 = sext i32 %43 to i64
  %45 = getelementptr inbounds %union.ListCell, ptr %41, i64 %44
  store ptr %45, ptr %15, align 8
  br label %47

46:                                               ; preds = %29, %25
  store ptr null, ptr %15, align 8
  br label %47

47:                                               ; preds = %46, %37
  %48 = phi i32 [ 1, %37 ], [ 0, %46 ]
  %49 = icmp ne i32 %48, 0
  br i1 %49, label %51, label %50

50:                                               ; preds = %47
  call void @llvm.lifetime.end.p0(i64 16, ptr %16) #6
  br label %73

51:                                               ; preds = %47
  call void @llvm.lifetime.start.p0(i64 8, ptr %17) #6
  %52 = load ptr, ptr %15, align 8
  %53 = load ptr, ptr %52, align 8
  store ptr %53, ptr %17, align 8
  call void @llvm.lifetime.start.p0(i64 8, ptr %18) #6
  %54 = load ptr, ptr %8, align 8
  %55 = load ptr, ptr %9, align 8
  %56 = load i32, ptr %12, align 4
  %57 = load ptr, ptr %17, align 8
  %58 = getelementptr inbounds nuw %struct.Path, ptr %57, i32 0, i32 12
  %59 = load ptr, ptr %58, align 8
  %60 = call ptr @build_join_pathkeys(ptr noundef %54, ptr noundef %55, i32 noundef %56, ptr noundef %59)
  store ptr %60, ptr %18, align 8
  %61 = load ptr, ptr %8, align 8
  %62 = load ptr, ptr %9, align 8
  %63 = load ptr, ptr %11, align 8
  %64 = load ptr, ptr %17, align 8
  %65 = load i32, ptr %12, align 4
  %66 = load ptr, ptr %13, align 8
  %67 = load ptr, ptr %14, align 8
  %68 = load ptr, ptr %18, align 8
  call void @generate_mergejoin_paths(ptr noundef %61, ptr noundef %62, ptr noundef %63, ptr noundef %64, i32 noundef %65, ptr noundef %66, i1 noundef zeroext false, ptr noundef %67, ptr noundef %68, i1 noundef zeroext true)
  call void @llvm.lifetime.end.p0(i64 8, ptr %18) #6
  call void @llvm.lifetime.end.p0(i64 8, ptr %17) #6
  br label %69

69:                                               ; preds = %51
  %70 = getelementptr inbounds nuw %struct.ForEachState, ptr %16, i32 0, i32 1
  %71 = load i32, ptr %70, align 8
  %72 = add i32 %71, 1
  store i32 %72, ptr %70, align 8
  br label %25, !llvm.loop !20

73:                                               ; preds = %50
  call void @llvm.lifetime.end.p0(i64 8, ptr %15) #6
  ret void
}