; Function Attrs: nounwind uwtable
define internal fastcc void @consider_parallel_mergejoin(ptr noundef %0, ptr noundef %1, ptr readonly captures(address_is_null) %.56.val, ptr noundef readonly captures(none) %2, i32 noundef range(i32 7, 6) %3, ptr noundef nonnull %4, ptr noundef nonnull %5) unnamed_addr #0 {
  %7 = getelementptr inbounds nuw i8, ptr %.56.val, i64 4
  %.not = icmp eq ptr %.56.val, null
  br i1 %.not, label %._crit_edge, label %.lr.ph

.lr.ph:                                           ; preds = %6
  %8 = getelementptr inbounds nuw i8, ptr %.56.val, i64 16
  %9 = load i32, ptr %7, align 4
  %10 = icmp sgt i32 %9, 0
  br i1 %10, label %.lr.ph6, label %._crit_edge

._crit_edge:                                      ; preds = %.lr.ph6, %.lr.ph, %6
  ret void

.lr.ph6:                                          ; preds = %.lr.ph, %.lr.ph6
  %indvars.iv = phi i64 [ %indvars.iv.next, %.lr.ph6 ], [ 0, %.lr.ph ]
  %11 = load ptr, ptr %8, align 8
  %12 = getelementptr inbounds nuw %union.ListCell, ptr %11, i64 %indvars.iv
  %13 = load ptr, ptr %12, align 8
  %14 = getelementptr inbounds nuw i8, ptr %13, i64 72
  %15 = load ptr, ptr %14, align 8
  %16 = tail call ptr @build_join_pathkeys(ptr noundef %0, ptr noundef %1, i32 noundef %3, ptr noundef %15) #5
  tail call fastcc void @generate_mergejoin_paths(ptr noundef %0, ptr noundef %1, ptr noundef %2, ptr noundef %13, i32 noundef %3, ptr noundef %4, i1 noundef zeroext false, ptr noundef %5, ptr noundef %16, i1 noundef zeroext true)
  %indvars.iv.next = add nuw nsw i64 %indvars.iv, 1
  %17 = load i32, ptr %7, align 4
  %18 = sext i32 %17 to i64
  %19 = icmp slt i64 %indvars.iv.next, %18
  br i1 %19, label %.lr.ph6, label %._crit_edge
}